target datalayout = "e-m:e-p270:32:32-p271:32:32-p272:64:64-i64:64-i128:128-f80:128-n8:16:32:64-S128"
target triple = "x86_64-pc-linux-gnu"

%class.EpsilonHeap = type { %class.CollectedHeap, ptr, ptr, %class.GCMemoryManager, ptr, %class.VirtualSpace, i64, i64, i64, i64, i64, i64 }
%class.CollectedHeap = type { ptr, ptr, i64, i64, %class.SoftRefPolicy, %class.MemRegion, i8, i64, i32, i32, i32, i32, ptr, ptr }
%class.SoftRefPolicy = type { i8, i8 }
%class.MemRegion = type { ptr, i64 }
%class.GCMemoryManager = type <{ %class.MemoryManager.base, [7 x i8], i64, %class.elapsedTimer, ptr, ptr, ptr, i32, i8, [10 x i8], i8 }>
%class.MemoryManager.base = type <{ ptr, [10 x ptr], i32, [4 x i8], ptr, %class.OopHandle, i8 }>
%class.OopHandle = type { ptr }
%class.elapsedTimer = type <{ i64, i64, i8, [7 x i8] }>
%class.VirtualSpace = type { ptr, ptr, ptr, ptr, i8, i8, ptr, ptr, ptr, ptr, ptr, ptr, i64, i64, i64 }

@_ZTV11EpsilonHeap = external unnamed_addr constant { [60 x ptr] }, align 8
@.str.6 = private unnamed_addr constant [13 x i8] c"Epsilon Heap\00", align 1

; Function Attrs: mustprogress nounwind uwtable
define linkonce_odr hidden void @_ZN11EpsilonHeapC2Ev(ptr noundef nonnull align 8 dereferenceable(480) %0) unnamed_addr #1 comdat align 2 {
  %2 = alloca ptr, align 8
  store ptr %0, ptr %2, align 8
  %3 = load ptr, ptr %2, align 8
  call void @_ZN13CollectedHeapC2Ev(ptr noundef nonnull align 8 dereferenceable(104) %3)
  store ptr getelementptr inbounds inrange(-16, 464) ({ [60 x ptr] }, ptr @_ZTV11EpsilonHeap, i32 0, i32 0, i32 2), ptr %3, align 8
  %4 = getelementptr inbounds %class.EpsilonHeap, ptr %3, i32 0, i32 3
  call void @_ZN15GCMemoryManagerC1EPKc(ptr noundef nonnull align 8 dereferenceable(191) %4, ptr noundef @.str.6)
  %5 = getelementptr inbounds %class.EpsilonHeap, ptr %3, i32 0, i32 4
  store ptr null, ptr %5, align 8
  %6 = getelementptr inbounds %class.EpsilonHeap, ptr %3, i32 0, i32 5
  call void @_ZN12VirtualSpaceC1Ev(ptr noundef nonnull align 8 dereferenceable(112) %6)
  ret void
}

; Function Attrs: mustprogress nounwind uwtable
define hidden noundef ptr @_ZN16EpsilonArguments11create_heapEv(ptr noundef nonnull align 8 dereferenceable(8) %0) unnamed_addr #1 align 2 {
  %2 = alloca i64, align 8
  %3 = alloca i8, align 1
  %4 = alloca i64, align 8
  %5 = alloca ptr, align 8
  store ptr %0, ptr %5, align 8
  store i64 480, ptr %4, align 8
  %6 = load i64, ptr %4, align 8
  store i64 %6, ptr %2, align 8
  store i8 5, ptr %3, align 1
  %7 = load i64, ptr %2, align 8
  %8 = load i8, ptr %3, align 1
  %9 = call noundef ptr @_Z12AllocateHeapm8MEMFLAGSN17AllocFailStrategy13AllocFailEnumE(i64 noundef %7, i8 noundef zeroext %8, i32 noundef 0) #4
  call void @_ZN11EpsilonHeapC2Ev(ptr noundef nonnull align 8 dereferenceable(480) %9)
  ret ptr %9
}